; Function Attrs: nounwind uwtable
define ptr @l_StateT_instMonad___rarg___lambda__7(ptr noundef %0, ptr noundef %1) #0 {
  %3 = getelementptr inbounds nuw i8, ptr %1, i64 16
  %4 = load ptr, ptr %3, align 8, !tbaa !9
  %5 = ptrtoint ptr %4 to i64
  %6 = and i64 %5, 1
  %.not = icmp eq i64 %6, 0
  br i1 %.not, label %7, label %lean_inc.exit

7:                                                ; preds = %2
  %.val.i = load i32, ptr %4, align 4, !tbaa !4
  %8 = icmp sgt i32 %.val.i, 0
  br i1 %8, label %9, label %11, !prof !13

9:                                                ; preds = %7
  %10 = add nuw i32 %.val.i, 1
  store i32 %10, ptr %4, align 4, !tbaa !4
  br label %lean_inc.exit

11:                                               ; preds = %7
  %.not.i7 = icmp eq i32 %.val.i, 0
  br i1 %.not.i7, label %lean_inc.exit, label %12

12:                                               ; preds = %11
  tail call void @lean_inc_ref_cold(ptr noundef nonnull %4) #3
  br label %lean_inc.exit

lean_inc.exit:                                    ; preds = %12, %11, %9, %2
  %13 = ptrtoint ptr %1 to i64
  %14 = and i64 %13, 1
  %.not8 = icmp eq i64 %14, 0
  br i1 %.not8, label %15, label %lean_dec.exit

15:                                               ; preds = %lean_inc.exit
  %16 = load i32, ptr %1, align 4, !tbaa !4
  %17 = icmp sgt i32 %16, 1
  br i1 %17, label %18, label %20, !prof !13

18:                                               ; preds = %15
  %19 = add nsw i32 %16, -1
  store i32 %19, ptr %1, align 4, !tbaa !4
  br label %lean_dec.exit

20:                                               ; preds = %15
  %.not.i = icmp eq i32 %16, 0
  br i1 %.not.i, label %lean_dec.exit, label %21

21:                                               ; preds = %20
  tail call void @lean_dec_ref_cold(ptr noundef nonnull %1) #3
  br label %lean_dec.exit

lean_dec.exit:                                    ; preds = %21, %20, %18, %lean_inc.exit
  %22 = tail call ptr @lean_apply_2(ptr noundef %0, ptr noundef nonnull inttoptr (i64 1 to ptr), ptr noundef %4) #3
  ret ptr %22
}